target datalayout = "e-m:e-p270:32:32-p271:32:32-p272:64:64-i64:64-i128:128-f80:128-n8:16:32:64-S128"
target triple = "x86_64-pc-linux-gnu"

%struct.gres_state = type { i32, i32, ptr, ptr, i32 }
%struct.gres_search_key = type { i32, i32, i32, i32 }
%struct.gres_job_state = type { i32, ptr, i16, i16, i64, i64, i64, i64, i64, i16, i16, i64, i32, ptr, ptr, ptr, ptr, i32, i64, i32, ptr, ptr, ptr, ptr, ptr, ptr }
%struct.slurm_gres_context = type { ptr, i32, ptr, ptr, i32, ptr, ptr, %struct.slurm_gres_ops, i32, ptr, i64 }
%struct.slurm_gres_ops = type { ptr, ptr, ptr, ptr, ptr, ptr, ptr, ptr, ptr, ptr, ptr }

@.str.1 = private unnamed_addr constant [7 x i8] c"gres.c\00", align 1
@__func__.gres_create_state = private unnamed_addr constant [18 x i8] c"gres_create_state\00", align 1
@.str.2 = private unnamed_addr constant [38 x i8] c"%s: No way to create gres_state given\00", align 1
@gres_context = internal global ptr null, align 8
@_get_next_job_gres.prev_save_ptr = internal global ptr null, align 8
@.str.262 = private unnamed_addr constant [18 x i8] c"%s: parsing error\00", align 1
@__func__._get_next_job_gres = private unnamed_addr constant [19 x i8] c"_get_next_job_gres\00", align 1
@.str.263 = private unnamed_addr constant [38 x i8] c"%s: Invalid GRES job specification %s\00", align 1

; Function Attrs: nounwind uwtable
define dso_local ptr @gres_create_state(ptr noundef %0, i32 noundef %1, i32 noundef %2, ptr noundef %3) #0 {
  %5 = alloca ptr, align 8
  %6 = alloca i32, align 4
  %7 = alloca i32, align 4
  %8 = alloca ptr, align 8
  %9 = alloca ptr, align 8
  %10 = alloca ptr, align 8
  %11 = alloca ptr, align 8
  %12 = alloca ptr, align 8
  store ptr %0, ptr %5, align 8
  store i32 %1, ptr %6, align 4
  store i32 %2, ptr %7, align 4
  store ptr %3, ptr %8, align 8
  call void @llvm.lifetime.start.p0(i64 8, ptr %9) #11
  %13 = call ptr @slurm_xcalloc(i64 noundef 1, i64 noundef 32, i1 noundef zeroext true, i1 noundef zeroext false, ptr noundef @.str.1, i32 noundef 591, ptr noundef @__func__.gres_create_state)
  store ptr %13, ptr %9, align 8
  %14 = load ptr, ptr %8, align 8
  %15 = load ptr, ptr %9, align 8
  %16 = getelementptr inbounds nuw %struct.gres_state, ptr %15, i32 0, i32 2
  store ptr %14, ptr %16, align 8
  %17 = load i32, ptr %7, align 4
  %18 = load ptr, ptr %9, align 8
  %19 = getelementptr inbounds nuw %struct.gres_state, ptr %18, i32 0, i32 4
  store i32 %17, ptr %19, align 8
  %20 = load i32, ptr %6, align 4
  switch i32 %20, label %69 [
    i32 0, label %21
    i32 1, label %39
    i32 2, label %57
  ]

21:                                               ; preds = %4
  call void @llvm.lifetime.start.p0(i64 8, ptr %10) #11
  %22 = load ptr, ptr %5, align 8
  store ptr %22, ptr %10, align 8
  %23 = load ptr, ptr %10, align 8
  %24 = getelementptr inbounds nuw %struct.gres_state, ptr %23, i32 0, i32 0
  %25 = load i32, ptr %24, align 8
  %26 = load ptr, ptr %9, align 8
  %27 = getelementptr inbounds nuw %struct.gres_state, ptr %26, i32 0, i32 0
  store i32 %25, ptr %27, align 8
  %28 = load ptr, ptr %10, align 8
  %29 = getelementptr inbounds nuw %struct.gres_state, ptr %28, i32 0, i32 1
  %30 = load i32, ptr %29, align 4
  %31 = load ptr, ptr %9, align 8
  %32 = getelementptr inbounds nuw %struct.gres_state, ptr %31, i32 0, i32 1
  store i32 %30, ptr %32, align 4
  %33 = load ptr, ptr %10, align 8
  %34 = getelementptr inbounds nuw %struct.gres_state, ptr %33, i32 0, i32 3
  %35 = load ptr, ptr %34, align 8
  %36 = call ptr @xstrdup(ptr noundef %35)
  %37 = load ptr, ptr %9, align 8
  %38 = getelementptr inbounds nuw %struct.gres_state, ptr %37, i32 0, i32 3
  store ptr %36, ptr %38, align 8
  call void @llvm.lifetime.end.p0(i64 8, ptr %10) #11
  br label %71

39:                                               ; preds = %4
  call void @llvm.lifetime.start.p0(i64 8, ptr %11) #11
  %40 = load ptr, ptr %5, align 8
  store ptr %40, ptr %11, align 8
  %41 = load ptr, ptr %11, align 8
  %42 = getelementptr inbounds nuw %struct.slurm_gres_context, ptr %41, i32 0, i32 1
  %43 = load i32, ptr %42, align 8
  %44 = load ptr, ptr %9, align 8
  %45 = getelementptr inbounds nuw %struct.gres_state, ptr %44, i32 0, i32 0
  store i32 %43, ptr %45, align 8
  %46 = load ptr, ptr %11, align 8
  %47 = getelementptr inbounds nuw %struct.slurm_gres_context, ptr %46, i32 0, i32 8
  %48 = load i32, ptr %47, align 8
  %49 = load ptr, ptr %9, align 8
  %50 = getelementptr inbounds nuw %struct.gres_state, ptr %49, i32 0, i32 1
  store i32 %48, ptr %50, align 4
  %51 = load ptr, ptr %11, align 8
  %52 = getelementptr inbounds nuw %struct.slurm_gres_context, ptr %51, i32 0, i32 2
  %53 = load ptr, ptr %52, align 8
  %54 = call ptr @xstrdup(ptr noundef %53)
  %55 = load ptr, ptr %9, align 8
  %56 = getelementptr inbounds nuw %struct.gres_state, ptr %55, i32 0, i32 3
  store ptr %54, ptr %56, align 8
  call void @llvm.lifetime.end.p0(i64 8, ptr %11) #11
  br label %71

57:                                               ; preds = %4
  call void @llvm.lifetime.start.p0(i64 8, ptr %12) #11
  %58 = load ptr, ptr %5, align 8
  store ptr %58, ptr %12, align 8
  %59 = load ptr, ptr %12, align 8
  %60 = getelementptr inbounds nuw %struct.gres_search_key, ptr %59, i32 0, i32 0
  %61 = load i32, ptr %60, align 4
  %62 = load ptr, ptr %9, align 8
  %63 = getelementptr inbounds nuw %struct.gres_state, ptr %62, i32 0, i32 0
  store i32 %61, ptr %63, align 8
  %64 = load ptr, ptr %12, align 8
  %65 = getelementptr inbounds nuw %struct.gres_search_key, ptr %64, i32 0, i32 2
  %66 = load i32, ptr %65, align 4
  %67 = load ptr, ptr %9, align 8
  %68 = getelementptr inbounds nuw %struct.gres_state, ptr %67, i32 0, i32 1
  store i32 %66, ptr %68, align 4
  call void @llvm.lifetime.end.p0(i64 8, ptr %12) #11
  br label %71

69:                                               ; preds = %4
  %70 = call i32 (ptr, ...) @error(ptr noundef @.str.2, ptr noundef @__func__.gres_create_state)
  call void @slurm_xfree(ptr noundef %9)
  br label %71

71:                                               ; preds = %69, %57, %39, %21
  %72 = load ptr, ptr %9, align 8
  call void @llvm.lifetime.end.p0(i64 8, ptr %9) #11
  ret ptr %72
}

; Function Attrs: nounwind uwtable
define dso_local i32 @gres_build_id(ptr noundef %0) #0 {
  %2 = alloca i32, align 4
  %3 = alloca ptr, align 8
  %4 = alloca i32, align 4
  %5 = alloca i32, align 4
  %6 = alloca i32, align 4
  %7 = alloca i32, align 4
  store ptr %0, ptr %3, align 8
  call void @llvm.lifetime.start.p0(i64 4, ptr %4) #11
  call void @llvm.lifetime.start.p0(i64 4, ptr %5) #11
  call void @llvm.lifetime.start.p0(i64 4, ptr %6) #11
  store i32 0, ptr %6, align 4
  %8 = load ptr, ptr %3, align 8
  %9 = icmp ne ptr %8, null
  br i1 %9, label %12, label %10

10:                                               ; preds = %1
  %11 = load i32, ptr %6, align 4
  store i32 %11, ptr %2, align 4
  store i32 1, ptr %7, align 4
  br label %39

12:                                               ; preds = %1
  store i32 0, ptr %4, align 4
  store i32 0, ptr %5, align 4
  br label %13

13:                                               ; preds = %34, %12
  %14 = load ptr, ptr %3, align 8
  %15 = load i32, ptr %4, align 4
  %16 = sext i32 %15 to i64
  %17 = getelementptr inbounds i8, ptr %14, i64 %16
  %18 = load i8, ptr %17, align 1
  %19 = icmp ne i8 %18, 0
  br i1 %19, label %20, label %37

20:                                               ; preds = %13
  %21 = load ptr, ptr %3, align 8
  %22 = load i32, ptr %4, align 4
  %23 = sext i32 %22 to i64
  %24 = getelementptr inbounds i8, ptr %21, i64 %23
  %25 = load i8, ptr %24, align 1
  %26 = sext i8 %25 to i32
  %27 = load i32, ptr %5, align 4
  %28 = shl i32 %26, %27
  %29 = load i32, ptr %6, align 4
  %30 = add i32 %29, %28
  store i32 %30, ptr %6, align 4
  %31 = load i32, ptr %5, align 4
  %32 = add nsw i32 %31, 8
  %33 = srem i32 %32, 32
  store i32 %33, ptr %5, align 4
  br label %34

34:                                               ; preds = %20
  %35 = load i32, ptr %4, align 4
  %36 = add nsw i32 %35, 1
  store i32 %36, ptr %4, align 4
  br label %13, !llvm.loop !14

37:                                               ; preds = %13
  %38 = load i32, ptr %6, align 4
  store i32 %38, ptr %2, align 4
  store i32 1, ptr %7, align 4
  br label %39

39:                                               ; preds = %37, %10
  call void @llvm.lifetime.end.p0(i64 4, ptr %6) #11
  call void @llvm.lifetime.end.p0(i64 4, ptr %5) #11
  call void @llvm.lifetime.end.p0(i64 4, ptr %4) #11
  %40 = load i32, ptr %2, align 4
  ret i32 %40
}

; Function Attrs: nounwind uwtable
define internal ptr @_get_next_job_gres(ptr noundef %0, ptr noundef %1, ptr noundef %2, ptr noundef %3, ptr noundef %4) #0 {
  %6 = alloca ptr, align 8
  %7 = alloca ptr, align 8
  %8 = alloca ptr, align 8
  %9 = alloca ptr, align 8
  %10 = alloca ptr, align 8
  %11 = alloca ptr, align 8
  %12 = alloca i32, align 4
  %13 = alloca i32, align 4
  %14 = alloca ptr, align 8
  %15 = alloca ptr, align 8
  %16 = alloca %struct.gres_search_key, align 4
  %17 = alloca ptr, align 8
  %18 = alloca ptr, align 8
  %19 = alloca i32, align 4
  store ptr %0, ptr %7, align 8
  store ptr %1, ptr %8, align 8
  store ptr %2, ptr %9, align 8
  store ptr %3, ptr %10, align 8
  store ptr %4, ptr %11, align 8
  call void @llvm.lifetime.start.p0(i64 4, ptr %12) #11
  store i32 -2, ptr %12, align 4
  call void @llvm.lifetime.start.p0(i64 4, ptr %13) #11
  store i32 0, ptr %13, align 4
  call void @llvm.lifetime.start.p0(i64 8, ptr %14) #11
  store ptr null, ptr %14, align 8
  call void @llvm.lifetime.start.p0(i64 8, ptr %15) #11
  store ptr null, ptr %15, align 8
  call void @llvm.lifetime.start.p0(i64 16, ptr %16) #11
  call void @llvm.lifetime.start.p0(i64 8, ptr %17) #11
  store ptr null, ptr %17, align 8
  call void @llvm.lifetime.start.p0(i64 8, ptr %18) #11
  store ptr null, ptr %18, align 8
  %20 = load ptr, ptr %7, align 8
  %21 = icmp ne ptr %20, null
  br i1 %21, label %27, label %22

22:                                               ; preds = %5
  %23 = load ptr, ptr %10, align 8
  %24 = load ptr, ptr %23, align 8
  %25 = icmp eq ptr %24, null
  br i1 %25, label %26, label %27

26:                                               ; preds = %22
  store ptr null, ptr %6, align 8
  store i32 1, ptr %19, align 4
  br label %129

27:                                               ; preds = %22, %5
  %28 = load ptr, ptr %10, align 8
  %29 = load ptr, ptr %28, align 8
  %30 = icmp eq ptr %29, null
  br i1 %30, label %31, label %33

31:                                               ; preds = %27
  %32 = load ptr, ptr %7, align 8
  store ptr %32, ptr @_get_next_job_gres.prev_save_ptr, align 8
  br label %41

33:                                               ; preds = %27
  %34 = load ptr, ptr %10, align 8
  %35 = load ptr, ptr %34, align 8
  %36 = load ptr, ptr @_get_next_job_gres.prev_save_ptr, align 8
  %37 = icmp ne ptr %35, %36
  br i1 %37, label %38, label %40

38:                                               ; preds = %33
  %39 = call i32 (ptr, ...) @error(ptr noundef @.str.262, ptr noundef @__func__._get_next_job_gres)
  store i32 -1, ptr %13, align 4
  br label %102

40:                                               ; preds = %33
  br label %41

41:                                               ; preds = %40, %31
  %42 = load ptr, ptr @_get_next_job_gres.prev_save_ptr, align 8
  %43 = getelementptr inbounds i8, ptr %42, i64 0
  %44 = load i8, ptr %43, align 1
  %45 = sext i8 %44 to i32
  %46 = icmp eq i32 %45, 0
  br i1 %46, label %47, label %49

47:                                               ; preds = %41
  %48 = load ptr, ptr %10, align 8
  store ptr null, ptr %48, align 8
  store ptr null, ptr %6, align 8
  store i32 1, ptr %19, align 4
  br label %129

49:                                               ; preds = %41
  %50 = load ptr, ptr %7, align 8
  %51 = load ptr, ptr %8, align 8
  %52 = call i32 @_get_next_gres(ptr noundef %50, ptr noundef %17, ptr noundef %12, ptr noundef %51, ptr noundef @_get_next_job_gres.prev_save_ptr)
  store i32 %52, ptr %13, align 4
  %53 = icmp ne i32 %52, 0
  br i1 %53, label %57, label %54

54:                                               ; preds = %49
  %55 = load i32, ptr %12, align 4
  %56 = icmp eq i32 %55, -2
  br i1 %56, label %57, label %58

57:                                               ; preds = %54, %49
  store ptr null, ptr @_get_next_job_gres.prev_save_ptr, align 8
  br label %102

58:                                               ; preds = %54
  %59 = load ptr, ptr @gres_context, align 8
  %60 = load i32, ptr %12, align 4
  %61 = sext i32 %60 to i64
  %62 = getelementptr inbounds %struct.slurm_gres_context, ptr %59, i64 %61
  %63 = getelementptr inbounds nuw %struct.slurm_gres_context, ptr %62, i32 0, i32 1
  %64 = load i32, ptr %63, align 8
  %65 = getelementptr inbounds nuw %struct.gres_search_key, ptr %16, i32 0, i32 0
  store i32 %64, ptr %65, align 4
  %66 = load ptr, ptr @gres_context, align 8
  %67 = load i32, ptr %12, align 4
  %68 = sext i32 %67 to i64
  %69 = getelementptr inbounds %struct.slurm_gres_context, ptr %66, i64 %68
  %70 = getelementptr inbounds nuw %struct.slurm_gres_context, ptr %69, i32 0, i32 8
  %71 = load i32, ptr %70, align 8
  %72 = getelementptr inbounds nuw %struct.gres_search_key, ptr %16, i32 0, i32 2
  store i32 %71, ptr %72, align 4
  %73 = load ptr, ptr %17, align 8
  %74 = call i32 @gres_build_id(ptr noundef %73)
  %75 = getelementptr inbounds nuw %struct.gres_search_key, ptr %16, i32 0, i32 3
  store i32 %74, ptr %75, align 4
  %76 = load ptr, ptr %9, align 8
  %77 = call ptr @list_find_first(ptr noundef %76, ptr noundef @gres_find_job_by_key, ptr noundef %16)
  store ptr %77, ptr %15, align 8
  %78 = load ptr, ptr %15, align 8
  %79 = icmp ne ptr %78, null
  br i1 %79, label %80, label %84

80:                                               ; preds = %58
  %81 = load ptr, ptr %15, align 8
  %82 = getelementptr inbounds nuw %struct.gres_state, ptr %81, i32 0, i32 2
  %83 = load ptr, ptr %82, align 8
  store ptr %83, ptr %14, align 8
  br label %101

84:                                               ; preds = %58
  %85 = call ptr @slurm_xcalloc(i64 noundef 1, i64 noundef 192, i1 noundef zeroext true, i1 noundef zeroext false, ptr noundef @.str.1, i32 noundef 6477, ptr noundef @__func__._get_next_job_gres)
  store ptr %85, ptr %14, align 8
  %86 = getelementptr inbounds nuw %struct.gres_search_key, ptr %16, i32 0, i32 3
  %87 = load i32, ptr %86, align 4
  %88 = load ptr, ptr %14, align 8
  %89 = getelementptr inbounds nuw %struct.gres_job_state, ptr %88, i32 0, i32 0
  store i32 %87, ptr %89, align 8
  %90 = load ptr, ptr %17, align 8
  %91 = load ptr, ptr %14, align 8
  %92 = getelementptr inbounds nuw %struct.gres_job_state, ptr %91, i32 0, i32 1
  store ptr %90, ptr %92, align 8
  store ptr null, ptr %17, align 8
  %93 = load ptr, ptr @gres_context, align 8
  %94 = load i32, ptr %12, align 4
  %95 = sext i32 %94 to i64
  %96 = getelementptr inbounds %struct.slurm_gres_context, ptr %93, i64 %95
  %97 = load ptr, ptr %14, align 8
  %98 = call ptr @gres_create_state(ptr noundef %96, i32 noundef 1, i32 noundef 2, ptr noundef %97)
  store ptr %98, ptr %15, align 8
  %99 = load ptr, ptr %9, align 8
  %100 = load ptr, ptr %15, align 8
  call void @list_append(ptr noundef %99, ptr noundef %100)
  br label %101

101:                                              ; preds = %84, %80
  br label %102

102:                                              ; preds = %101, %57, %38
  call void @slurm_xfree(ptr noundef %18)
  call void @slurm_xfree(ptr noundef %17)
  %103 = load i32, ptr %13, align 4
  %104 = icmp ne i32 %103, 0
  br i1 %104, label %105, label %125

105:                                              ; preds = %102
  store ptr null, ptr @_get_next_job_gres.prev_save_ptr, align 8
  %106 = load i32, ptr %13, align 4
  %107 = icmp eq i32 %106, 2072
  br i1 %107, label %108, label %122

108:                                              ; preds = %105
  %109 = call zeroext i1 @running_in_slurmctld()
  br i1 %109, label %110, label %122

110:                                              ; preds = %108
  br label %111

111:                                              ; preds = %110
  br label %112

112:                                              ; preds = %111
  %113 = call i32 @get_log_level()
  %114 = icmp sge i32 %113, 3
  br i1 %114, label %115, label %117

115:                                              ; preds = %112
  %116 = load ptr, ptr %7, align 8
  call void (i32, ptr, ...) @log_var(i32 noundef 3, ptr noundef @.str.263, ptr noundef @__func__._get_next_job_gres, ptr noundef %116)
  br label %117

117:                                              ; preds = %115, %112
  br label %118

118:                                              ; preds = %117
  br label %119

119:                                              ; preds = %118
  br label %120

120:                                              ; preds = %119
  br label %121

121:                                              ; preds = %120
  br label %122

122:                                              ; preds = %121, %108, %105
  %123 = load i32, ptr %13, align 4
  %124 = load ptr, ptr %11, align 8
  store i32 %123, ptr %124, align 4
  br label %125

125:                                              ; preds = %122, %102
  %126 = load ptr, ptr @_get_next_job_gres.prev_save_ptr, align 8
  %127 = load ptr, ptr %10, align 8
  store ptr %126, ptr %127, align 8
  %128 = load ptr, ptr %15, align 8
  store ptr %128, ptr %6, align 8
  store i32 1, ptr %19, align 4
  br label %129

129:                                              ; preds = %125, %47, %26
  call void @llvm.lifetime.end.p0(i64 8, ptr %18) #11
  call void @llvm.lifetime.end.p0(i64 8, ptr %17) #11
  call void @llvm.lifetime.end.p0(i64 16, ptr %16) #11
  call void @llvm.lifetime.end.p0(i64 8, ptr %15) #11
  call void @llvm.lifetime.end.p0(i64 8, ptr %14) #11
  call void @llvm.lifetime.end.p0(i64 4, ptr %13) #11
  call void @llvm.lifetime.end.p0(i64 4, ptr %12) #11
  %130 = load ptr, ptr %6, align 8
  ret ptr %130
}