; Function Attrs: nounwind uwtable
define internal fastcc ptr @_get_next_job_gres(ptr noundef %0, ptr noundef nonnull writeonly captures(none) %1, ptr noundef %2, ptr noundef nonnull captures(none) %3, ptr noundef nonnull writeonly captures(none) %4) unnamed_addr #2 {
  %6 = alloca i32, align 4
  %7 = alloca %struct.gres_search_key, align 4
  %8 = alloca ptr, align 8
  %9 = alloca ptr, align 8
  call void @llvm.lifetime.start.p0(i64 4, ptr nonnull %6) #28
  store i32 -2, ptr %6, align 4
  call void @llvm.lifetime.start.p0(i64 16, ptr nonnull %7) #28
  call void @llvm.lifetime.start.p0(i64 8, ptr nonnull %8) #28
  store ptr null, ptr %8, align 8
  call void @llvm.lifetime.start.p0(i64 8, ptr nonnull %9) #28
  store ptr null, ptr %9, align 8
  %.not = icmp eq ptr %0, null
  %10 = load ptr, ptr %3, align 8
  %11 = icmp eq ptr %10, null
  br i1 %.not, label %12, label %13

12:                                               ; preds = %5
  br i1 %11, label %78, label %.thread

13:                                               ; preds = %5
  br i1 %11, label %14, label %.thread

14:                                               ; preds = %13
  store ptr %0, ptr @_get_next_job_gres.prev_save_ptr, align 8
  br label %18

.thread:                                          ; preds = %12, %13
  %15 = load ptr, ptr @_get_next_job_gres.prev_save_ptr, align 8
  %.not30 = icmp eq ptr %10, %15
  br i1 %.not30, label %18, label %16

16:                                               ; preds = %.thread
  %17 = tail call i32 (ptr, ...) @error(ptr noundef nonnull @.str.262, ptr noundef nonnull @__func__._get_next_job_gres) #28
  br label %66

18:                                               ; preds = %.thread, %14
  %19 = phi ptr [ %15, %.thread ], [ %0, %14 ]
  %20 = load i8, ptr %19, align 1
  %21 = icmp eq i8 %20, 0
  br i1 %21, label %.sink.split, label %22

22:                                               ; preds = %18
  %23 = call fastcc i32 @_get_next_gres(ptr noundef %0, ptr noundef %8, ptr noundef %6, ptr noundef %1, ptr noundef nonnull @_get_next_job_gres.prev_save_ptr)
  %24 = icmp ne i32 %23, 0
  %25 = load i32, ptr %6, align 4
  %26 = icmp eq i32 %25, -2
  %or.cond = select i1 %24, i1 true, i1 %26
  br i1 %or.cond, label %27, label %28

27:                                               ; preds = %22
  store ptr null, ptr @_get_next_job_gres.prev_save_ptr, align 8
  br label %66

28:                                               ; preds = %22
  %29 = load ptr, ptr @gres_context, align 8
  %30 = sext i32 %25 to i64
  %31 = getelementptr inbounds %struct.slurm_gres_context, ptr %29, i64 %30, i32 1
  %32 = load i32, ptr %31, align 8
  store i32 %32, ptr %7, align 4
  %33 = getelementptr inbounds %struct.slurm_gres_context, ptr %29, i64 %30, i32 8
  %34 = load i32, ptr %33, align 8
  %35 = getelementptr inbounds nuw i8, ptr %7, i64 8
  store i32 %34, ptr %35, align 4
  %36 = load ptr, ptr %8, align 8
  %.not.i = icmp eq ptr %36, null
  br i1 %.not.i, label %gres_build_id.exit, label %.preheader.i

.preheader.i:                                     ; preds = %28
  %37 = load i8, ptr %36, align 1
  %.not1617.i = icmp eq i8 %37, 0
  br i1 %.not1617.i, label %gres_build_id.exit, label %.lr.ph.i

.lr.ph.i:                                         ; preds = %.preheader.i, %.lr.ph.i
  %indvars.iv.i = phi i64 [ %indvars.iv.next.i, %.lr.ph.i ], [ 0, %.preheader.i ]
  %38 = phi i8 [ %45, %.lr.ph.i ], [ %37, %.preheader.i ]
  %.020.i = phi i32 [ %41, %.lr.ph.i ], [ 0, %.preheader.i ]
  %.01119.i = phi i32 [ %43, %.lr.ph.i ], [ 0, %.preheader.i ]
  %39 = sext i8 %38 to i32
  %40 = shl i32 %39, %.01119.i
  %41 = add i32 %40, %.020.i
  %42 = add nsw i32 %.01119.i, 8
  %43 = srem i32 %42, 32
  %indvars.iv.next.i = add nuw nsw i64 %indvars.iv.i, 1
  %44 = getelementptr inbounds nuw i8, ptr %36, i64 %indvars.iv.next.i
  %45 = load i8, ptr %44, align 1
  %.not16.i = icmp eq i8 %45, 0
  br i1 %.not16.i, label %gres_build_id.exit, label %.lr.ph.i, !llvm.loop !11

gres_build_id.exit:                               ; preds = %.lr.ph.i, %28, %.preheader.i
  %.013.i = phi i32 [ 0, %28 ], [ 0, %.preheader.i ], [ %41, %.lr.ph.i ]
  %46 = getelementptr inbounds nuw i8, ptr %7, i64 12
  store i32 %.013.i, ptr %46, align 4
  %47 = call ptr @list_find_first(ptr noundef %2, ptr noundef nonnull @gres_find_job_by_key, ptr noundef nonnull %7) #28
  %.not31 = icmp eq ptr %47, null
  br i1 %.not31, label %48, label %66

48:                                               ; preds = %gres_build_id.exit
  %49 = call ptr @slurm_xcalloc(i64 noundef 1, i64 noundef 192, i1 noundef zeroext true, i1 noundef zeroext false, ptr noundef nonnull @.str.1, i32 noundef 6477, ptr noundef nonnull @__func__._get_next_job_gres) #28
  %50 = load i32, ptr %46, align 4
  store i32 %50, ptr %49, align 8
  %51 = getelementptr inbounds nuw i8, ptr %49, i64 8
  store ptr %36, ptr %51, align 8
  store ptr null, ptr %8, align 8
  %52 = load ptr, ptr @gres_context, align 8
  %53 = getelementptr inbounds %struct.slurm_gres_context, ptr %52, i64 %30
  %54 = call ptr @slurm_xcalloc(i64 noundef 1, i64 noundef 32, i1 noundef zeroext true, i1 noundef zeroext false, ptr noundef nonnull @.str.1, i32 noundef 591, ptr noundef nonnull @__func__.gres_create_state) #28
  %55 = getelementptr inbounds nuw i8, ptr %54, i64 8
  store ptr %49, ptr %55, align 8
  %56 = getelementptr inbounds nuw i8, ptr %54, i64 24
  store i32 2, ptr %56, align 8
  %57 = getelementptr inbounds nuw i8, ptr %53, i64 8
  %58 = load i32, ptr %57, align 8
  store i32 %58, ptr %54, align 8
  %59 = getelementptr inbounds nuw i8, ptr %53, i64 144
  %60 = load i32, ptr %59, align 8
  %61 = getelementptr inbounds nuw i8, ptr %54, i64 4
  store i32 %60, ptr %61, align 4
  %62 = getelementptr inbounds nuw i8, ptr %53, i64 16
  %63 = load ptr, ptr %62, align 8
  %64 = call ptr @xstrdup(ptr noundef %63) #28
  %65 = getelementptr inbounds nuw i8, ptr %54, i64 16
  store ptr %64, ptr %65, align 8
  call void @list_append(ptr noundef %2, ptr noundef nonnull %54) #28
  br label %66

66:                                               ; preds = %gres_build_id.exit, %48, %27, %16
  %.024 = phi i32 [ %23, %27 ], [ 0, %48 ], [ -1, %16 ], [ 0, %gres_build_id.exit ]
  %.0 = phi ptr [ null, %27 ], [ %54, %48 ], [ null, %16 ], [ %47, %gres_build_id.exit ]
  call void @slurm_xfree(ptr noundef nonnull %9) #28
  call void @slurm_xfree(ptr noundef nonnull %8) #28
  %.not32 = icmp eq i32 %.024, 0
  br i1 %.not32, label %76, label %67

67:                                               ; preds = %66
  store ptr null, ptr @_get_next_job_gres.prev_save_ptr, align 8
  %68 = icmp eq i32 %.024, 2072
  br i1 %68, label %69, label %75

69:                                               ; preds = %67
  %70 = call zeroext i1 @running_in_slurmctld() #28
  br i1 %70, label %71, label %75

71:                                               ; preds = %69
  %72 = call i32 @get_log_level() #28
  %73 = icmp sgt i32 %72, 2
  br i1 %73, label %74, label %75

74:                                               ; preds = %71
  call void (i32, ptr, ...) @log_var(i32 noundef 3, ptr noundef nonnull @.str.263, ptr noundef nonnull @__func__._get_next_job_gres, ptr noundef %0) #28
  br label %75

75:                                               ; preds = %71, %74, %69, %67
  store i32 %.024, ptr %4, align 4
  br label %76

76:                                               ; preds = %75, %66
  %77 = load ptr, ptr @_get_next_job_gres.prev_save_ptr, align 8
  br label %.sink.split

.sink.split:                                      ; preds = %18, %76
  %.sink = phi ptr [ %77, %76 ], [ null, %18 ]
  %.025.ph = phi ptr [ %.0, %76 ], [ null, %18 ]
  store ptr %.sink, ptr %3, align 8
  br label %78

78:                                               ; preds = %.sink.split, %12
  %.025 = phi ptr [ null, %12 ], [ %.025.ph, %.sink.split ]
  call void @llvm.lifetime.end.p0(i64 8, ptr nonnull %9) #28
  call void @llvm.lifetime.end.p0(i64 8, ptr nonnull %8) #28
  call void @llvm.lifetime.end.p0(i64 16, ptr nonnull %7) #28
  call void @llvm.lifetime.end.p0(i64 4, ptr nonnull %6) #28
  ret ptr %.025
}